(dp0
S'global_output_max'
p1
F1.299
sS'global_transfer_value'
p2
F2.8346456692913384
sS'all_weights'
p3
ccollections
defaultdict
p4
(c__builtin__
int
p5
tp6
Rp7
S'hist_whash'
p8
F0.945
sS'hist_ahash'
p9
F0.63
sS'hist_phash'
p10
F12.441
sS'lines_horiz_dist_hist'
p11
F3.622
sS'hist_dhash'
p12
F0.63
sS'multi_hist'
p13
F6.772
sS'whash'
p14
F0.787
sS'hist'
p15
F17.008
sS'dhash'
p16
F1.102
sS'image_ratio'
p17
F1.102
sS'phash'
p18
F3.15
sS'tf'
p19
F20.0
sS'ahash'
p20
F0.787
sS'lines_vert_dist_hist'
p21
F3.622
sS'lines_angle_hist'
p22
F5.512
ssS'max_items'
p23
I50
sS'global_input_max'
p24
F77.953
s.