(dp0
S'global_output_max'
p1
F1.3
sS'global_transfer_value'
p2
F2.8346456692913384
sS'all_weights'
p3
ccollections
defaultdict
p4
(c__builtin__
int
p5
tp6
Rp7
S'hist_whash'
p8
F0.945
sS'hist_phash'
p9
F12.441
sS'hist_dhash'
p10
F0.63
sS'whash'
p11
F0.787
sS'image_ratio'
p12
F1.102
sS'phash'
p13
F3.15
sS'lines_angle_hist'
p14
F5.512
sS'hist_ahash'
p15
F0.63
sS'lines_horiz_dist_hist'
p16
F3.622
sS'multi_hist'
p17
F6.772
sS'hist'
p18
F17.008
sS'dhash'
p19
F1.102
sS'ahash'
p20
F0.787
sS'tf'
p21
F20.0
sS'lines_vert_dist_hist'
p22
F3.622
ssS'max_items'
p23
I500
sS'global_input_max'
p24
F78.0
s.